; Function Attrs: mustprogress nofree norecurse nosync nounwind memory(readwrite, inaccessiblemem: none) uwtable
define hidden void @_ZN14expr_free_vars16set_default_sortEP4sort(ptr noundef nonnull readonly align 8 captures(none) dereferenceable(40) %0, ptr noundef %1) local_unnamed_addr #7 align 2 {
  %3 = getelementptr inbounds nuw i8, ptr %0, i64 24
  %4 = load ptr, ptr %3, align 8, !tbaa !97
  %5 = icmp eq ptr %4, null
  br i1 %5, label %.split6.us, label %.split

.split:                                           ; preds = %2
  %6 = getelementptr inbounds i8, ptr %4, i64 -4
  %7 = load i32, ptr %6, align 4, !tbaa !91
  %.not10 = icmp eq i32 %7, 0
  br i1 %.not10, label %.split6.us, label %.lr.ph.preheader

.lr.ph.preheader:                                 ; preds = %.split
  %wide.trip.count = zext i32 %7 to i64
  br label %.lr.ph

.split6.us:                                       ; preds = %_ZNK6vectorIP4sortLb0EjE4sizeEv.exit, %.split, %2
  ret void

.lr.ph:                                           ; preds = %.lr.ph.preheader, %_ZNK6vectorIP4sortLb0EjE4sizeEv.exit
  %indvars.iv = phi i64 [ 0, %.lr.ph.preheader ], [ %indvars.iv.next, %_ZNK6vectorIP4sortLb0EjE4sizeEv.exit ]
  %8 = getelementptr inbounds nuw ptr, ptr %4, i64 %indvars.iv
  %9 = load ptr, ptr %8, align 8, !tbaa !142
  %.not = icmp eq ptr %9, null
  br i1 %.not, label %10, label %_ZNK6vectorIP4sortLb0EjE4sizeEv.exit

10:                                               ; preds = %.lr.ph
  store ptr %1, ptr %8, align 8, !tbaa !142
  br label %_ZNK6vectorIP4sortLb0EjE4sizeEv.exit

_ZNK6vectorIP4sortLb0EjE4sizeEv.exit:             ; preds = %.lr.ph, %10
  %indvars.iv.next = add nuw nsw i64 %indvars.iv, 1
  %exitcond.not = icmp eq i64 %indvars.iv.next, %wide.trip.count
  br i1 %exitcond.not, label %.split6.us, label %.lr.ph, !llvm.loop !174
}